target datalayout = "e-m:e-p270:32:32-p271:32:32-p272:64:64-i64:64-i128:128-f80:128-n8:16:32:64-S128"
target triple = "x86_64-pc-linux-gnu"

%union.ListCell = type { ptr }
%struct.List = type { i32, i32, i32, ptr, [0 x %union.ListCell] }
%struct.PLpgSQL_stmt_raise = type { i32, i32, i32, i32, ptr, ptr, ptr, ptr }

@.str.2 = private unnamed_addr constant [11 x i8] c"plpgsql-18\00", align 1
@.str.4 = private unnamed_addr constant [10 x i8] c"pl_gram.y\00", align 1
@.str.142 = private unnamed_addr constant [40 x i8] c"too many parameters specified for RAISE\00", align 1
@__func__.check_raise_parameters = private unnamed_addr constant [23 x i8] c"check_raise_parameters\00", align 1
@.str.143 = private unnamed_addr constant [39 x i8] c"too few parameters specified for RAISE\00", align 1

; Function Attrs: inlinehint nounwind uwtable
define internal i32 @list_length(ptr noundef %0) #6 {
  %2 = alloca ptr, align 8
  store ptr %0, ptr %2, align 8
  %3 = load ptr, ptr %2, align 8
  %4 = icmp ne ptr %3, null
  br i1 %4, label %5, label %9

5:                                                ; preds = %1
  %6 = load ptr, ptr %2, align 8
  %7 = getelementptr inbounds nuw %struct.List, ptr %6, i32 0, i32 1
  %8 = load i32, ptr %7, align 4
  br label %10

9:                                                ; preds = %1
  br label %10

10:                                               ; preds = %9, %5
  %11 = phi i32 [ %8, %5 ], [ 0, %9 ]
  ret i32 %11
}

; Function Attrs: nounwind uwtable
define internal void @check_raise_parameters(ptr noundef %0) #0 {
  %2 = alloca ptr, align 8
  %3 = alloca ptr, align 8
  %4 = alloca i32, align 4
  %5 = alloca i32, align 4
  store ptr %0, ptr %2, align 8
  call void @llvm.lifetime.start.p0(i64 8, ptr %3) #10
  call void @llvm.lifetime.start.p0(i64 4, ptr %4) #10
  store i32 0, ptr %4, align 4
  %6 = load ptr, ptr %2, align 8
  %7 = getelementptr inbounds nuw %struct.PLpgSQL_stmt_raise, ptr %6, i32 0, i32 5
  %8 = load ptr, ptr %7, align 8
  %9 = icmp eq ptr %8, null
  br i1 %9, label %10, label %11

10:                                               ; preds = %1
  store i32 1, ptr %5, align 4
  br label %81

11:                                               ; preds = %1
  %12 = load ptr, ptr %2, align 8
  %13 = getelementptr inbounds nuw %struct.PLpgSQL_stmt_raise, ptr %12, i32 0, i32 5
  %14 = load ptr, ptr %13, align 8
  store ptr %14, ptr %3, align 8
  br label %15

15:                                               ; preds = %39, %11
  %16 = load ptr, ptr %3, align 8
  %17 = load i8, ptr %16, align 1
  %18 = icmp ne i8 %17, 0
  br i1 %18, label %19, label %42

19:                                               ; preds = %15
  %20 = load ptr, ptr %3, align 8
  %21 = getelementptr inbounds i8, ptr %20, i64 0
  %22 = load i8, ptr %21, align 1
  %23 = sext i8 %22 to i32
  %24 = icmp eq i32 %23, 37
  br i1 %24, label %25, label %38

25:                                               ; preds = %19
  %26 = load ptr, ptr %3, align 8
  %27 = getelementptr inbounds i8, ptr %26, i64 1
  %28 = load i8, ptr %27, align 1
  %29 = sext i8 %28 to i32
  %30 = icmp eq i32 %29, 37
  br i1 %30, label %31, label %34

31:                                               ; preds = %25
  %32 = load ptr, ptr %3, align 8
  %33 = getelementptr inbounds nuw i8, ptr %32, i32 1
  store ptr %33, ptr %3, align 8
  br label %37

34:                                               ; preds = %25
  %35 = load i32, ptr %4, align 4
  %36 = add i32 %35, 1
  store i32 %36, ptr %4, align 4
  br label %37

37:                                               ; preds = %34, %31
  br label %38

38:                                               ; preds = %37, %19
  br label %39

39:                                               ; preds = %38
  %40 = load ptr, ptr %3, align 8
  %41 = getelementptr inbounds nuw i8, ptr %40, i32 1
  store ptr %41, ptr %3, align 8
  br label %15, !llvm.loop !23

42:                                               ; preds = %15
  %43 = load i32, ptr %4, align 4
  %44 = load ptr, ptr %2, align 8
  %45 = getelementptr inbounds nuw %struct.PLpgSQL_stmt_raise, ptr %44, i32 0, i32 6
  %46 = load ptr, ptr %45, align 8
  %47 = call i32 @list_length(ptr noundef %46)
  %48 = icmp slt i32 %43, %47
  br i1 %48, label %49, label %61

49:                                               ; preds = %42
  br label %50

50:                                               ; preds = %49
  br i1 true, label %51, label %53

51:                                               ; preds = %50
  %52 = call zeroext i1 @errstart_cold(i32 noundef 21, ptr noundef @.str.2) #12
  br i1 %52, label %55, label %58

53:                                               ; preds = %50
  %54 = call zeroext i1 @errstart(i32 noundef 21, ptr noundef @.str.2)
  br i1 %54, label %55, label %58

55:                                               ; preds = %53, %51
  %56 = call i32 @errcode(i32 noundef 16801924)
  %57 = call i32 (ptr, ...) @errmsg(ptr noundef @.str.142)
  call void @errfinish(ptr noundef @.str.4, i32 noundef 4155, ptr noundef @__func__.check_raise_parameters)
  br label %58

58:                                               ; preds = %55, %53, %51
  unreachable

59:                                               ; No predecessors!
  br label %60

60:                                               ; preds = %59
  br label %61

61:                                               ; preds = %60, %42
  %62 = load i32, ptr %4, align 4
  %63 = load ptr, ptr %2, align 8
  %64 = getelementptr inbounds nuw %struct.PLpgSQL_stmt_raise, ptr %63, i32 0, i32 6
  %65 = load ptr, ptr %64, align 8
  %66 = call i32 @list_length(ptr noundef %65)
  %67 = icmp sgt i32 %62, %66
  br i1 %67, label %68, label %80

68:                                               ; preds = %61
  br label %69

69:                                               ; preds = %68
  br i1 true, label %70, label %72

70:                                               ; preds = %69
  %71 = call zeroext i1 @errstart_cold(i32 noundef 21, ptr noundef @.str.2) #12
  br i1 %71, label %74, label %77

72:                                               ; preds = %69
  %73 = call zeroext i1 @errstart(i32 noundef 21, ptr noundef @.str.2)
  br i1 %73, label %74, label %77

74:                                               ; preds = %72, %70
  %75 = call i32 @errcode(i32 noundef 16801924)
  %76 = call i32 (ptr, ...) @errmsg(ptr noundef @.str.143)
  call void @errfinish(ptr noundef @.str.4, i32 noundef 4159, ptr noundef @__func__.check_raise_parameters)
  br label %77

77:                                               ; preds = %74, %72, %70
  unreachable

78:                                               ; No predecessors!
  br label %79

79:                                               ; preds = %78
  br label %80

80:                                               ; preds = %79, %61
  store i32 0, ptr %5, align 4
  br label %81

81:                                               ; preds = %80, %10
  call void @llvm.lifetime.end.p0(i64 4, ptr %4) #10
  call void @llvm.lifetime.end.p0(i64 8, ptr %3) #10
  %82 = load i32, ptr %5, align 4
  switch i32 %82, label %84 [
    i32 0, label %83
    i32 1, label %83
  ]

83:                                               ; preds = %81, %81
  ret void

84:                                               ; preds = %81
  unreachable
}