; Function Attrs: nounwind uwtable
define internal fastcc void @check_raise_parameters(ptr noundef readonly captures(none) %0) unnamed_addr #0 {
  %2 = getelementptr inbounds nuw i8, ptr %0, i64 24
  %3 = load ptr, ptr %2, align 8
  %4 = icmp eq ptr %3, null
  br i1 %4, label %30, label %.preheader

.preheader:                                       ; preds = %1, %11
  %.011 = phi ptr [ %12, %11 ], [ %3, %1 ]
  %.0 = phi i32 [ %.1, %11 ], [ 0, %1 ]
  %5 = load i8, ptr %.011, align 1
  switch i8 %5, label %11 [
    i8 0, label %13
    i8 37, label %6
  ]

6:                                                ; preds = %.preheader
  %7 = getelementptr inbounds nuw i8, ptr %.011, i64 1
  %8 = load i8, ptr %7, align 1
  %9 = icmp ne i8 %8, 37
  %spec.select = select i1 %9, ptr %.011, ptr %7
  %10 = zext i1 %9 to i32
  %spec.select15 = add i32 %.0, %10
  br label %11

11:                                               ; preds = %6, %.preheader
  %.112 = phi ptr [ %.011, %.preheader ], [ %spec.select, %6 ]
  %.1 = phi i32 [ %.0, %.preheader ], [ %spec.select15, %6 ]
  %12 = getelementptr inbounds nuw i8, ptr %.112, i64 1
  br label %.preheader, !llvm.loop !19

13:                                               ; preds = %.preheader
  %14 = getelementptr inbounds nuw i8, ptr %0, i64 32
  %15 = load ptr, ptr %14, align 8
  %.not.i = icmp eq ptr %15, null
  br i1 %.not.i, label %list_length.exit, label %list_length.exit.thread

list_length.exit:                                 ; preds = %13
  %16 = icmp slt i32 %.0, 0
  br i1 %16, label %20, label %list_length.exit17

list_length.exit.thread:                          ; preds = %13
  %17 = getelementptr inbounds nuw i8, ptr %15, i64 4
  %18 = load i32, ptr %17, align 4
  %19 = icmp slt i32 %.0, %18
  br i1 %19, label %20, label %list_length.exit17

20:                                               ; preds = %list_length.exit.thread, %list_length.exit
  %21 = tail call zeroext i1 @errstart_cold(i32 noundef 21, ptr noundef nonnull @.str.2) #14
  tail call void @llvm.assume(i1 %21)
  %22 = tail call i32 @errcode(i32 noundef 16801924) #12
  %23 = tail call i32 (ptr, ...) @errmsg(ptr noundef nonnull @.str.142) #12
  tail call void @errfinish(ptr noundef nonnull @.str.4, i32 noundef 4155, ptr noundef nonnull @__func__.check_raise_parameters) #12
  unreachable

list_length.exit17:                               ; preds = %list_length.exit.thread, %list_length.exit
  %24 = phi i32 [ 0, %list_length.exit ], [ %18, %list_length.exit.thread ]
  %25 = icmp sgt i32 %.0, %24
  br i1 %25, label %26, label %30

26:                                               ; preds = %list_length.exit17
  %27 = tail call zeroext i1 @errstart_cold(i32 noundef 21, ptr noundef nonnull @.str.2) #14
  tail call void @llvm.assume(i1 %27)
  %28 = tail call i32 @errcode(i32 noundef 16801924) #12
  %29 = tail call i32 (ptr, ...) @errmsg(ptr noundef nonnull @.str.143) #12
  tail call void @errfinish(ptr noundef nonnull @.str.4, i32 noundef 4159, ptr noundef nonnull @__func__.check_raise_parameters) #12
  unreachable

30:                                               ; preds = %list_length.exit17, %1
  ret void
}